; Function Attrs: null_pointer_is_valid sspstrong uwtable
define internal fastcc i32 @c_dissect_featureset(ptr noundef %0, i32 noundef %1, ptr noundef %2, i32 noundef %3) unnamed_addr #0 {
  %5 = tail call ptr @proto_tree_add_item(ptr noundef %0, i32 noundef %1, ptr noundef %2, i32 noundef %3, i32 noundef -1, i32 noundef 0)
  %6 = load i32, ptr @ett_featureset, align 4
  %7 = tail call ptr @proto_item_add_subtree(ptr noundef %5, i32 noundef %6)
  %8 = tail call i64 @tvb_get_letoh64(ptr noundef %2, i32 noundef %3)
  %9 = load i32, ptr @hf_featureset_mask, align 4
  %10 = tail call ptr @proto_tree_add_item(ptr noundef %7, i32 noundef %9, ptr noundef %2, i32 noundef %3, i32 noundef 8, i32 noundef -2147483648)
  %11 = add i32 %3, 8
  %12 = tail call i32 @tvb_get_letohl(ptr noundef %2, i32 noundef %11)
  %13 = add i32 %3, 12
  %.not1 = icmp eq i32 %12, 0
  br i1 %.not1, label %._crit_edge, label %.lr.ph

.lr.ph:                                           ; preds = %4, %.lr.ph
  %.03 = phi i32 [ %36, %.lr.ph ], [ %13, %4 ]
  %.0382 = phi i32 [ %14, %.lr.ph ], [ %12, %4 ]
  %14 = add i32 %.0382, -1
  %15 = load i32, ptr @hf_featureset_name, align 4
  %16 = tail call ptr @proto_tree_add_item(ptr noundef %7, i32 noundef %15, ptr noundef %2, i32 noundef %.03, i32 noundef -1, i32 noundef 0)
  %17 = load i32, ptr @ett_featureset_name, align 4
  %18 = tail call ptr @proto_item_add_subtree(ptr noundef %16, i32 noundef %17)
  %19 = tail call i64 @tvb_get_letoh64(ptr noundef %2, i32 noundef %.03)
  %20 = load i32, ptr @hf_featureset_name_val, align 4
  %21 = tail call ptr @proto_tree_add_item(ptr noundef %18, i32 noundef %20, ptr noundef %2, i32 noundef %.03, i32 noundef 8, i32 noundef -2147483648)
  %22 = add i32 %.03, 8
  %23 = load i32, ptr @hf_featureset_name_name, align 4
  %24 = tail call i32 @tvb_get_letohl(ptr noundef %2, i32 noundef %22)
  %25 = tail call ptr @wmem_packet_scope()
  %26 = add i32 %.03, 12
  %27 = tail call ptr @tvb_get_string_enc(ptr noundef %25, ptr noundef %2, i32 noundef %26, i32 noundef %24, i32 noundef 0)
  %28 = add i32 %24, 4
  %29 = tail call ptr @proto_tree_add_string(ptr noundef %18, i32 noundef %23, ptr noundef %2, i32 noundef %22, i32 noundef %28, ptr noundef %27)
  %30 = load i32, ptr @ett_str, align 4
  %31 = tail call ptr @proto_item_add_subtree(ptr noundef %29, i32 noundef %30)
  %32 = load i32, ptr @hf_string_size, align 4
  %33 = tail call ptr @proto_tree_add_item(ptr noundef %31, i32 noundef %32, ptr noundef %2, i32 noundef %22, i32 noundef 4, i32 noundef -2147483648)
  %34 = load i32, ptr @hf_string_data, align 4
  %35 = tail call ptr @proto_tree_add_item(ptr noundef %31, i32 noundef %34, ptr noundef %2, i32 noundef %26, i32 noundef %24, i32 noundef 2)
  %36 = add i32 %24, %26
  tail call void (ptr, ptr, ...) @proto_item_append_text(ptr noundef %16, ptr noundef nonnull @.str.1691, i64 noundef %19, ptr noundef %27)
  tail call void @proto_item_set_end(ptr noundef %16, ptr noundef %2, i32 noundef %36)
  %.not = icmp eq i32 %14, 0
  br i1 %.not, label %._crit_edge, label %.lr.ph, !llvm.loop !63

._crit_edge:                                      ; preds = %.lr.ph, %4
  %.0.lcssa = phi i32 [ %13, %4 ], [ %36, %.lr.ph ]
  tail call void (ptr, ptr, ...) @proto_item_append_text(ptr noundef %5, ptr noundef nonnull @.str.1692, i64 noundef %8)
  tail call void @proto_item_set_end(ptr noundef %5, ptr noundef %2, i32 noundef %.0.lcssa)
  ret i32 %.0.lcssa
}